; Function Attrs: nofree norecurse nosync nounwind memory(read, argmem: readwrite, inaccessiblemem: none) uwtable
define i32 @Abc_SuppGenFindBest(ptr noundef readonly captures(none) %0, i32 noundef %1, ptr noundef writeonly captures(none) %2) local_unnamed_addr #7 {
  %4 = alloca [64 x i32], align 16
  call void @llvm.lifetime.start.p0(i64 256, ptr nonnull %4) #24
  call void @llvm.memset.p0.i64(ptr noundef nonnull align 16 dereferenceable(256) %4, i8 0, i64 256, i1 false)
  %5 = getelementptr i8, ptr %0, i64 4
  %.val17.i = load i32, ptr %5, align 4, !tbaa !3
  %6 = icmp sgt i32 %.val17.i, 0
  br i1 %6, label %.lr.ph20.i, label %Abc_SuppGenProfile.exit

.lr.ph20.i:                                       ; preds = %3
  %7 = getelementptr i8, ptr %0, i64 8
  %.val15.i = load ptr, ptr %7, align 8, !tbaa !11
  %8 = zext i32 %1 to i64
  %9 = icmp sgt i32 %1, 0
  br i1 %9, label %.lr.ph.us.i.preheader, label %._crit_edge

.lr.ph.us.i.preheader:                            ; preds = %.lr.ph20.i
  %10 = zext nneg i32 %.val17.i to i64
  br label %.lr.ph.us.i

.lr.ph.us.i:                                      ; preds = %.lr.ph.us.i.preheader, %._crit_edge.us.i
  %indvars.iv23.i = phi i64 [ %indvars.iv.next24.i, %._crit_edge.us.i ], [ 0, %.lr.ph.us.i.preheader ]
  %11 = getelementptr inbounds nuw i64, ptr %.val15.i, i64 %indvars.iv23.i
  %12 = load i64, ptr %11, align 8, !tbaa !12
  %13 = lshr i64 %12, %8
  br label %14

14:                                               ; preds = %14, %.lr.ph.us.i
  %indvars.iv.i = phi i64 [ 0, %.lr.ph.us.i ], [ %indvars.iv.next.i, %14 ]
  %15 = lshr i64 %12, %indvars.iv.i
  %16 = xor i64 %15, %13
  %17 = getelementptr inbounds nuw i32, ptr %4, i64 %indvars.iv.i
  %18 = load i32, ptr %17, align 4, !tbaa !22
  %19 = trunc i64 %16 to i32
  %20 = and i32 %19, 1
  %21 = add i32 %20, %18
  store i32 %21, ptr %17, align 4, !tbaa !22
  %indvars.iv.next.i = add nuw nsw i64 %indvars.iv.i, 1
  %exitcond.not.i = icmp eq i64 %indvars.iv.next.i, %8
  br i1 %exitcond.not.i, label %._crit_edge.us.i, label %14, !llvm.loop !27

._crit_edge.us.i:                                 ; preds = %14
  %indvars.iv.next24.i = add nuw nsw i64 %indvars.iv23.i, 1
  %exitcond.not = icmp eq i64 %indvars.iv.next24.i, %10
  br i1 %exitcond.not, label %Abc_SuppGenProfile.exit, label %.lr.ph.us.i, !llvm.loop !28

Abc_SuppGenProfile.exit:                          ; preds = %._crit_edge.us.i, %3
  %22 = icmp sgt i32 %1, 1
  br i1 %22, label %.lr.ph.preheader, label %._crit_edge

.lr.ph.preheader:                                 ; preds = %Abc_SuppGenProfile.exit
  %wide.trip.count = zext nneg i32 %1 to i64
  br label %.lr.ph

.lr.ph:                                           ; preds = %.lr.ph.preheader, %.lr.ph
  %indvars.iv = phi i64 [ 1, %.lr.ph.preheader ], [ %indvars.iv.next, %.lr.ph ]
  %.012 = phi i32 [ 0, %.lr.ph.preheader ], [ %spec.select, %.lr.ph ]
  %23 = zext nneg i32 %.012 to i64
  %24 = getelementptr inbounds nuw [64 x i32], ptr %4, i64 0, i64 %23
  %25 = load i32, ptr %24, align 4, !tbaa !22
  %26 = getelementptr inbounds nuw [64 x i32], ptr %4, i64 0, i64 %indvars.iv
  %27 = load i32, ptr %26, align 4, !tbaa !22
  %28 = icmp slt i32 %25, %27
  %29 = trunc nuw nsw i64 %indvars.iv to i32
  %spec.select = select i1 %28, i32 %29, i32 %.012
  %indvars.iv.next = add nuw nsw i64 %indvars.iv, 1
  %exitcond14.not = icmp eq i64 %indvars.iv.next, %wide.trip.count
  br i1 %exitcond14.not, label %._crit_edge, label %.lr.ph, !llvm.loop !30

._crit_edge:                                      ; preds = %.lr.ph, %.lr.ph20.i, %Abc_SuppGenProfile.exit
  %.0.lcssa = phi i32 [ 0, %Abc_SuppGenProfile.exit ], [ 0, %.lr.ph20.i ], [ %spec.select, %.lr.ph ]
  %30 = zext nneg i32 %.0.lcssa to i64
  %31 = getelementptr inbounds nuw [64 x i32], ptr %4, i64 0, i64 %30
  %32 = load i32, ptr %31, align 4, !tbaa !22
  store i32 %32, ptr %2, align 4, !tbaa !22
  call void @llvm.lifetime.end.p0(i64 256, ptr nonnull %4) #24
  ret i32 %.0.lcssa
}